; Function Attrs: mustprogress uwtable
define hidden void @_ZN2cv23gaussian_2D_convolutionERKNS_3MatERS0_iif(ptr noundef nonnull align 8 dereferenceable(96) %0, ptr noundef nonnull align 8 dereferenceable(96) %1, i32 noundef %2, i32 noundef %3, float noundef %4) local_unnamed_addr #3 personality ptr @__gxx_personality_v0 {
  %6 = alloca %"class.cv::_InputArray", align 8
  %7 = alloca %"class.cv::_OutputArray", align 8
  %8 = sitofp i32 %2 to float
  %9 = fcmp ogt float %4, %8
  br i1 %9, label %15, label %10

10:                                               ; preds = %5
  %11 = sitofp i32 %3 to float
  %12 = fcmp ogt float %4, %11
  %13 = icmp eq i32 %2, 0
  %or.cond = or i1 %13, %12
  %14 = icmp eq i32 %3, 0
  %or.cond3 = or i1 %14, %or.cond
  br i1 %or.cond3, label %15, label %25

15:                                               ; preds = %10, %5
  %16 = fadd float %4, 0xBFE99999A0000000
  %17 = fdiv float %16, 0x3FD3333340000000
  %18 = fadd float %17, 1.000000e+00
  %19 = fmul float %18, 2.000000e+00
  %20 = tail call float @llvm.ceil.f32(float %19)
  %21 = fptosi float %20 to i32
  %22 = or i32 %21, 1
  %23 = zext i32 %22 to i64
  %24 = mul nuw i64 %23, 4294967297
  br label %25

25:                                               ; preds = %15, %10
  %.023 = phi i64 [ %24, %15 ], [ 4294967297, %10 ]
  call void @llvm.lifetime.start.p0(i64 24, ptr nonnull %6) #19
  %26 = getelementptr inbounds nuw i8, ptr %6, i64 16
  store i32 0, ptr %26, align 8, !tbaa !3
  %27 = getelementptr inbounds nuw i8, ptr %6, i64 20
  store i32 0, ptr %27, align 4, !tbaa !8
  store i32 16842752, ptr %6, align 8, !tbaa !9
  %28 = getelementptr inbounds nuw i8, ptr %6, i64 8
  store ptr %0, ptr %28, align 8, !tbaa !12
  call void @llvm.lifetime.start.p0(i64 24, ptr nonnull %7) #19
  %29 = getelementptr inbounds nuw i8, ptr %7, i64 8
  %30 = getelementptr inbounds nuw i8, ptr %7, i64 16
  store i64 0, ptr %30, align 8
  store i32 33619968, ptr %7, align 8, !tbaa !9
  store ptr %1, ptr %29, align 8, !tbaa !12
  %31 = fpext float %4 to double
  call void @_ZN2cv12GaussianBlurERKNS_11_InputArrayERKNS_12_OutputArrayENS_5Size_IiEEddiNS_13AlgorithmHintE(ptr noundef nonnull align 8 dereferenceable(24) %6, ptr noundef nonnull align 8 dereferenceable(24) %7, i64 %.023, double noundef %31, double noundef %31, i32 noundef 1, i32 noundef 0)
  call void @llvm.lifetime.end.p0(i64 24, ptr nonnull %7) #19
  call void @llvm.lifetime.end.p0(i64 24, ptr nonnull %6) #19
  ret void
}